; Function Attrs: mustprogress nofree norecurse nosync nounwind willreturn memory(none) uwtable
define hidden noundef ptr @_ZN8FrameMap11fpu_regnameEi(i32 noundef %0) local_unnamed_addr #5 align 2 {
  %or.cond.i = icmp ult i32 %0, 8
  %spec.select.i = select i1 %or.cond.i, i32 %0, i32 -1
  %2 = sext i32 %spec.select.i to i64
  %3 = getelementptr inbounds %"class.FloatRegister::FloatRegisterImpl", ptr getelementptr inbounds (i8, ptr @all_FloatRegisterImpls, i64 1), i64 %2
  %4 = ptrtoint ptr %3 to i64
  %5 = trunc i64 %4 to i32
  %6 = sub i32 %5, ptrtoint (ptr getelementptr inbounds (i8, ptr @all_FloatRegisterImpls, i64 1) to i32)
  %7 = shl i32 %6, 1
  %8 = sext i32 %7 to i64
  %9 = getelementptr %class.VMRegImpl, ptr getelementptr inbounds (i8, ptr @all_VMRegs, i64 1), i64 %8
  %10 = getelementptr i8, ptr %9, i64 64
  ret ptr %10
}